; ModuleID = '34/2379.c'
source_filename = "34/2379.c"
target datalayout = "e-m:e-p270:32:32-p271:32:32-p272:64:64-i64:64-f80:128-n8:16:32:64-S128"
target triple = "x86_64-pc-linux-gnu"

@.str = private unnamed_addr constant [3 x i8] c"%d\00", align 1
@.str.1 = private unnamed_addr constant [9 x i8] c"%d/2=%d\0A\00", align 1
@.str.2 = private unnamed_addr constant [11 x i8] c"%d*3+1=%d\0A\00", align 1
@.str.3 = private unnamed_addr constant [5 x i8] c"End\0A\00", align 1

; Function Attrs: noinline nounwind uwtable
define dso_local i32 @main(i32 %0, i8** %1) #0 {
  %3 = alloca i32, align 4
  %4 = alloca i32, align 4
  %5 = alloca i8**, align 8
  %6 = alloca i32, align 4
  %7 = alloca i32, align 4
  store i32 0, i32* %3, align 4
  store i32 %0, i32* %4, align 4
  store i8** %1, i8*** %5, align 8
  %8 = call i32 (i8*, ...) @__isoc99_scanf(i8* getelementptr inbounds ([3 x i8], [3 x i8]* @.str, i64 0, i64 0), i32* %6)
  br label %9

9:                                                ; preds = %40, %2
  %10 = load i32, i32* %6, align 4
  %11 = icmp ne i32 %10, 1
  br i1 %11, label %12, label %35

12:                                               ; preds = %9
  %13 = load i32, i32* %6, align 4
  %14 = srem i32 %13, 2
  %15 = icmp eq i32 %14, 0
  br i1 %15, label %16, label %22

16:                                               ; preds = %12
  %17 = load i32, i32* %6, align 4
  %18 = sdiv i32 %17, 2
  store i32 %18, i32* %7, align 4
  %19 = load i32, i32* %6, align 4
  %20 = load i32, i32* %7, align 4
  %21 = call i32 (i8*, ...) @printf(i8* getelementptr inbounds ([9 x i8], [9 x i8]* @.str.1, i64 0, i64 0), i32 %19, i32 %20)
  br label %22

22:                                               ; preds = %16, %12
  %23 = load i32, i32* %6, align 4
  %24 = srem i32 %23, 2
  %25 = icmp ne i32 %24, 0
  br i1 %25, label %26, label %33

26:                                               ; preds = %22
  %27 = load i32, i32* %6, align 4
  %28 = mul nsw i32 %27, 3
  %29 = add nsw i32 %28, 1
  store i32 %29, i32* %7, align 4
  %30 = load i32, i32* %6, align 4
  %31 = load i32, i32* %7, align 4
  %32 = call i32 (i8*, ...) @printf(i8* getelementptr inbounds ([11 x i8], [11 x i8]* @.str.2, i64 0, i64 0), i32 %30, i32 %31)
  br label %33

33:                                               ; preds = %26, %22
  %34 = load i32, i32* %7, align 4
  store i32 %34, i32* %6, align 4
  br label %35

35:                                               ; preds = %33, %9
  %36 = load i32, i32* %6, align 4
  %37 = icmp eq i32 %36, 1
  br i1 %37, label %38, label %40

38:                                               ; preds = %35
  %39 = call i32 (i8*, ...) @printf(i8* getelementptr inbounds ([5 x i8], [5 x i8]* @.str.3, i64 0, i64 0))
  br label %41

40:                                               ; preds = %35
  br label %9

41:                                               ; preds = %38
  ret i32 0
}

declare dso_local i32 @__isoc99_scanf(i8*, ...) #1

declare dso_local i32 @printf(i8*, ...) #1


!llvm.module.flags = !{!0}
!llvm.ident = !{!1}

!0 = !{i32 1, !"wchar_size", i32 4}
!1 = !{!"clang version 10.0.0-4ubuntu1 "}
